target datalayout = "e-m:e-p270:32:32-p271:32:32-p272:64:64-i64:64-i128:128-f80:128-n8:16:32:64-S128"
target triple = "x86_64-pc-linux-gnu"

%struct.stack_st = type { i64, ptr, i64, i64, ptr }

; Function Attrs: inlinehint nounwind uwtable
define available_externally ptr @bsearch(ptr noundef nonnull %0, ptr noundef nonnull %1, i64 noundef %2, i64 noundef %3, ptr noundef nonnull %4) #7 {
  %6 = alloca ptr, align 8
  %7 = alloca ptr, align 8
  %8 = alloca ptr, align 8
  %9 = alloca i64, align 8
  %10 = alloca i64, align 8
  %11 = alloca ptr, align 8
  %12 = alloca i64, align 8
  %13 = alloca i64, align 8
  %14 = alloca i64, align 8
  %15 = alloca ptr, align 8
  %16 = alloca i32, align 4
  %17 = alloca i32, align 4
  store ptr %0, ptr %7, align 8, !tbaa !6
  store ptr %1, ptr %8, align 8, !tbaa !6
  store i64 %2, ptr %9, align 8, !tbaa !19
  store i64 %3, ptr %10, align 8, !tbaa !19
  store ptr %4, ptr %11, align 8, !tbaa !6
  call void @llvm.lifetime.start.p0(i64 8, ptr %12) #9
  call void @llvm.lifetime.start.p0(i64 8, ptr %13) #9
  call void @llvm.lifetime.start.p0(i64 8, ptr %14) #9
  call void @llvm.lifetime.start.p0(i64 8, ptr %15) #9
  call void @llvm.lifetime.start.p0(i64 4, ptr %16) #9
  store i64 0, ptr %12, align 8, !tbaa !19
  %18 = load i64, ptr %9, align 8, !tbaa !19
  store i64 %18, ptr %13, align 8, !tbaa !19
  br label %19

19:                                               ; preds = %50, %5
  %20 = load i64, ptr %12, align 8, !tbaa !19
  %21 = load i64, ptr %13, align 8, !tbaa !19
  %22 = icmp ult i64 %20, %21
  br i1 %22, label %23, label %51

23:                                               ; preds = %19
  %24 = load i64, ptr %12, align 8, !tbaa !19
  %25 = load i64, ptr %13, align 8, !tbaa !19
  %26 = add i64 %24, %25
  %27 = udiv i64 %26, 2
  store i64 %27, ptr %14, align 8, !tbaa !19
  %28 = load ptr, ptr %8, align 8, !tbaa !6
  %29 = load i64, ptr %14, align 8, !tbaa !19
  %30 = load i64, ptr %10, align 8, !tbaa !19
  %31 = mul i64 %29, %30
  %32 = getelementptr inbounds nuw i8, ptr %28, i64 %31
  store ptr %32, ptr %15, align 8, !tbaa !6
  %33 = load ptr, ptr %11, align 8, !tbaa !6
  %34 = load ptr, ptr %7, align 8, !tbaa !6
  %35 = load ptr, ptr %15, align 8, !tbaa !6
  %36 = call i32 %33(ptr noundef %34, ptr noundef %35)
  store i32 %36, ptr %16, align 4, !tbaa !27
  %37 = load i32, ptr %16, align 4, !tbaa !27
  %38 = icmp slt i32 %37, 0
  br i1 %38, label %39, label %41

39:                                               ; preds = %23
  %40 = load i64, ptr %14, align 8, !tbaa !19
  store i64 %40, ptr %13, align 8, !tbaa !19
  br label %50

41:                                               ; preds = %23
  %42 = load i32, ptr %16, align 4, !tbaa !27
  %43 = icmp sgt i32 %42, 0
  br i1 %43, label %44, label %47

44:                                               ; preds = %41
  %45 = load i64, ptr %14, align 8, !tbaa !19
  %46 = add i64 %45, 1
  store i64 %46, ptr %12, align 8, !tbaa !19
  br label %49

47:                                               ; preds = %41
  %48 = load ptr, ptr %15, align 8, !tbaa !6
  store ptr %48, ptr %6, align 8
  store i32 1, ptr %17, align 4
  br label %52

49:                                               ; preds = %44
  br label %50

50:                                               ; preds = %49, %39
  br label %19, !llvm.loop !29

51:                                               ; preds = %19
  store ptr null, ptr %6, align 8
  store i32 1, ptr %17, align 4
  br label %52

52:                                               ; preds = %51, %47
  call void @llvm.lifetime.end.p0(i64 4, ptr %16) #9
  call void @llvm.lifetime.end.p0(i64 8, ptr %15) #9
  call void @llvm.lifetime.end.p0(i64 8, ptr %14) #9
  call void @llvm.lifetime.end.p0(i64 8, ptr %13) #9
  call void @llvm.lifetime.end.p0(i64 8, ptr %12) #9
  %53 = load ptr, ptr %6, align 8
  ret ptr %53
}

; Function Attrs: nounwind uwtable
define hidden void @sk_sort(ptr noundef %0) #0 {
  %2 = alloca ptr, align 8
  %3 = alloca ptr, align 8
  %4 = alloca i32, align 4
  store ptr %0, ptr %2, align 8, !tbaa !10
  call void @llvm.lifetime.start.p0(i64 8, ptr %3) #9
  %5 = load ptr, ptr %2, align 8, !tbaa !10
  %6 = icmp eq ptr %5, null
  br i1 %6, label %17, label %7

7:                                                ; preds = %1
  %8 = load ptr, ptr %2, align 8, !tbaa !10
  %9 = getelementptr inbounds nuw %struct.stack_st, ptr %8, i32 0, i32 4
  %10 = load ptr, ptr %9, align 8, !tbaa !15
  %11 = icmp eq ptr %10, null
  br i1 %11, label %17, label %12

12:                                               ; preds = %7
  %13 = load ptr, ptr %2, align 8, !tbaa !10
  %14 = getelementptr inbounds nuw %struct.stack_st, ptr %13, i32 0, i32 2
  %15 = load i64, ptr %14, align 8, !tbaa !18
  %16 = icmp ne i64 %15, 0
  br i1 %16, label %17, label %18

17:                                               ; preds = %12, %7, %1
  store i32 1, ptr %4, align 4
  br label %31

18:                                               ; preds = %12
  %19 = load ptr, ptr %2, align 8, !tbaa !10
  %20 = getelementptr inbounds nuw %struct.stack_st, ptr %19, i32 0, i32 4
  %21 = load ptr, ptr %20, align 8, !tbaa !15
  store ptr %21, ptr %3, align 8, !tbaa !6
  %22 = load ptr, ptr %2, align 8, !tbaa !10
  %23 = getelementptr inbounds nuw %struct.stack_st, ptr %22, i32 0, i32 1
  %24 = load ptr, ptr %23, align 8, !tbaa !12
  %25 = load ptr, ptr %2, align 8, !tbaa !10
  %26 = getelementptr inbounds nuw %struct.stack_st, ptr %25, i32 0, i32 0
  %27 = load i64, ptr %26, align 8, !tbaa !17
  %28 = load ptr, ptr %3, align 8, !tbaa !6
  call void @qsort(ptr noundef %24, i64 noundef %27, i64 noundef 8, ptr noundef %28)
  %29 = load ptr, ptr %2, align 8, !tbaa !10
  %30 = getelementptr inbounds nuw %struct.stack_st, ptr %29, i32 0, i32 2
  store i64 1, ptr %30, align 8, !tbaa !18
  store i32 0, ptr %4, align 4
  br label %31

31:                                               ; preds = %18, %17
  call void @llvm.lifetime.end.p0(i64 8, ptr %3) #9
  %32 = load i32, ptr %4, align 4
  switch i32 %32, label %34 [
    i32 0, label %33
    i32 1, label %33
  ]

33:                                               ; preds = %31, %31
  ret void

34:                                               ; preds = %31
  unreachable
}

; Function Attrs: nounwind uwtable
define hidden i32 @sk_find(ptr noundef %0, ptr noundef %1, ptr noundef %2) #0 {
  %4 = alloca i32, align 4
  %5 = alloca ptr, align 8
  %6 = alloca ptr, align 8
  %7 = alloca ptr, align 8
  %8 = alloca ptr, align 8
  %9 = alloca i64, align 8
  %10 = alloca ptr, align 8
  %11 = alloca i32, align 4
  store ptr %0, ptr %5, align 8, !tbaa !10
  store ptr %1, ptr %6, align 8, !tbaa !23
  store ptr %2, ptr %7, align 8, !tbaa !6
  call void @llvm.lifetime.start.p0(i64 8, ptr %8) #9
  call void @llvm.lifetime.start.p0(i64 8, ptr %9) #9
  call void @llvm.lifetime.start.p0(i64 8, ptr %10) #9
  %12 = load ptr, ptr %5, align 8, !tbaa !10
  %13 = icmp eq ptr %12, null
  br i1 %13, label %14, label %15

14:                                               ; preds = %3
  store i32 0, ptr %4, align 4
  store i32 1, ptr %11, align 4
  br label %104

15:                                               ; preds = %3
  %16 = load ptr, ptr %5, align 8, !tbaa !10
  %17 = getelementptr inbounds nuw %struct.stack_st, ptr %16, i32 0, i32 4
  %18 = load ptr, ptr %17, align 8, !tbaa !15
  %19 = icmp eq ptr %18, null
  br i1 %19, label %20, label %48

20:                                               ; preds = %15
  store i64 0, ptr %9, align 8, !tbaa !19
  br label %21

21:                                               ; preds = %44, %20
  %22 = load i64, ptr %9, align 8, !tbaa !19
  %23 = load ptr, ptr %5, align 8, !tbaa !10
  %24 = getelementptr inbounds nuw %struct.stack_st, ptr %23, i32 0, i32 0
  %25 = load i64, ptr %24, align 8, !tbaa !17
  %26 = icmp ult i64 %22, %25
  br i1 %26, label %27, label %47

27:                                               ; preds = %21
  %28 = load ptr, ptr %5, align 8, !tbaa !10
  %29 = getelementptr inbounds nuw %struct.stack_st, ptr %28, i32 0, i32 1
  %30 = load ptr, ptr %29, align 8, !tbaa !12
  %31 = load i64, ptr %9, align 8, !tbaa !19
  %32 = getelementptr inbounds nuw ptr, ptr %30, i64 %31
  %33 = load ptr, ptr %32, align 8, !tbaa !6
  %34 = load ptr, ptr %7, align 8, !tbaa !6
  %35 = icmp eq ptr %33, %34
  br i1 %35, label %36, label %43

36:                                               ; preds = %27
  %37 = load ptr, ptr %6, align 8, !tbaa !23
  %38 = icmp ne ptr %37, null
  br i1 %38, label %39, label %42

39:                                               ; preds = %36
  %40 = load i64, ptr %9, align 8, !tbaa !19
  %41 = load ptr, ptr %6, align 8, !tbaa !23
  store i64 %40, ptr %41, align 8, !tbaa !19
  br label %42

42:                                               ; preds = %39, %36
  store i32 1, ptr %4, align 4
  store i32 1, ptr %11, align 4
  br label %104

43:                                               ; preds = %27
  br label %44

44:                                               ; preds = %43
  %45 = load i64, ptr %9, align 8, !tbaa !19
  %46 = add i64 %45, 1
  store i64 %46, ptr %9, align 8, !tbaa !19
  br label %21, !llvm.loop !25

47:                                               ; preds = %21
  store i32 0, ptr %4, align 4
  store i32 1, ptr %11, align 4
  br label %104

48:                                               ; preds = %15
  %49 = load ptr, ptr %7, align 8, !tbaa !6
  %50 = icmp eq ptr %49, null
  br i1 %50, label %51, label %52

51:                                               ; preds = %48
  store i32 0, ptr %4, align 4
  store i32 1, ptr %11, align 4
  br label %104

52:                                               ; preds = %48
  %53 = load ptr, ptr %5, align 8, !tbaa !10
  call void @sk_sort(ptr noundef %53)
  %54 = load ptr, ptr %5, align 8, !tbaa !10
  %55 = getelementptr inbounds nuw %struct.stack_st, ptr %54, i32 0, i32 4
  %56 = load ptr, ptr %55, align 8, !tbaa !15
  store ptr %56, ptr %10, align 8, !tbaa !6
  %57 = load ptr, ptr %5, align 8, !tbaa !10
  %58 = getelementptr inbounds nuw %struct.stack_st, ptr %57, i32 0, i32 1
  %59 = load ptr, ptr %58, align 8, !tbaa !12
  %60 = load ptr, ptr %5, align 8, !tbaa !10
  %61 = getelementptr inbounds nuw %struct.stack_st, ptr %60, i32 0, i32 0
  %62 = load i64, ptr %61, align 8, !tbaa !17
  %63 = load ptr, ptr %10, align 8, !tbaa !6
  %64 = call ptr @bsearch(ptr noundef %7, ptr noundef %59, i64 noundef %62, i64 noundef 8, ptr noundef %63)
  store ptr %64, ptr %8, align 8, !tbaa !6
  %65 = load ptr, ptr %8, align 8, !tbaa !6
  %66 = icmp eq ptr %65, null
  br i1 %66, label %67, label %68

67:                                               ; preds = %52
  store i32 0, ptr %4, align 4
  store i32 1, ptr %11, align 4
  br label %104

68:                                               ; preds = %52
  %69 = load ptr, ptr %8, align 8, !tbaa !6
  %70 = load ptr, ptr %5, align 8, !tbaa !10
  %71 = getelementptr inbounds nuw %struct.stack_st, ptr %70, i32 0, i32 1
  %72 = load ptr, ptr %71, align 8, !tbaa !12
  %73 = ptrtoint ptr %69 to i64
  %74 = ptrtoint ptr %72 to i64
  %75 = sub i64 %73, %74
  %76 = sdiv exact i64 %75, 8
  store i64 %76, ptr %9, align 8, !tbaa !19
  br label %77

77:                                               ; preds = %94, %68
  %78 = load i64, ptr %9, align 8, !tbaa !19
  %79 = icmp ugt i64 %78, 0
  br i1 %79, label %80, label %92

80:                                               ; preds = %77
  %81 = load ptr, ptr %5, align 8, !tbaa !10
  %82 = getelementptr inbounds nuw %struct.stack_st, ptr %81, i32 0, i32 4
  %83 = load ptr, ptr %82, align 8, !tbaa !15
  %84 = load ptr, ptr %5, align 8, !tbaa !10
  %85 = getelementptr inbounds nuw %struct.stack_st, ptr %84, i32 0, i32 1
  %86 = load ptr, ptr %85, align 8, !tbaa !12
  %87 = load i64, ptr %9, align 8, !tbaa !19
  %88 = sub i64 %87, 1
  %89 = getelementptr inbounds nuw ptr, ptr %86, i64 %88
  %90 = call i32 %83(ptr noundef %7, ptr noundef %89)
  %91 = icmp eq i32 %90, 0
  br label %92

92:                                               ; preds = %80, %77
  %93 = phi i1 [ false, %77 ], [ %91, %80 ]
  br i1 %93, label %94, label %97

94:                                               ; preds = %92
  %95 = load i64, ptr %9, align 8, !tbaa !19
  %96 = add i64 %95, -1
  store i64 %96, ptr %9, align 8, !tbaa !19
  br label %77, !llvm.loop !26

97:                                               ; preds = %92
  %98 = load ptr, ptr %6, align 8, !tbaa !23
  %99 = icmp ne ptr %98, null
  br i1 %99, label %100, label %103

100:                                              ; preds = %97
  %101 = load i64, ptr %9, align 8, !tbaa !19
  %102 = load ptr, ptr %6, align 8, !tbaa !23
  store i64 %101, ptr %102, align 8, !tbaa !19
  br label %103

103:                                              ; preds = %100, %97
  store i32 1, ptr %4, align 4
  store i32 1, ptr %11, align 4
  br label %104

104:                                              ; preds = %103, %67, %51, %47, %42, %14
  call void @llvm.lifetime.end.p0(i64 8, ptr %10) #9
  call void @llvm.lifetime.end.p0(i64 8, ptr %9) #9
  call void @llvm.lifetime.end.p0(i64 8, ptr %8) #9
  %105 = load i32, ptr %4, align 4
  ret i32 %105
}