; Function Attrs: nounwind uwtable
define hidden range(i32 0, 2) i32 @sk_find(ptr noundef captures(address_is_null) %0, ptr noundef writeonly captures(address_is_null) %1, ptr noundef %2) local_unnamed_addr #7 {
  %4 = alloca ptr, align 8
  store ptr %2, ptr %4, align 8, !tbaa !16
  %5 = icmp eq ptr %0, null
  br i1 %5, label %bsearch.exit.thread, label %6

6:                                                ; preds = %3
  %7 = getelementptr inbounds nuw i8, ptr %0, i64 32
  %8 = load ptr, ptr %7, align 8, !tbaa !12
  %9 = icmp eq ptr %8, null
  br i1 %9, label %.preheader, label %20

.preheader:                                       ; preds = %6
  %10 = load i64, ptr %0, align 8, !tbaa !14
  %.not44 = icmp eq i64 %10, 0
  br i1 %.not44, label %bsearch.exit.thread, label %.lr.ph43

.lr.ph43:                                         ; preds = %.preheader
  %11 = getelementptr inbounds nuw i8, ptr %0, i64 8
  %12 = load ptr, ptr %11, align 8, !tbaa !6
  br label %13

13:                                               ; preds = %.lr.ph43, %18
  %.02642 = phi i64 [ 0, %.lr.ph43 ], [ %19, %18 ]
  %14 = getelementptr inbounds nuw ptr, ptr %12, i64 %.02642
  %15 = load ptr, ptr %14, align 8, !tbaa !16
  %16 = icmp eq ptr %15, %2
  br i1 %16, label %17, label %18

17:                                               ; preds = %13
  %.not32 = icmp eq ptr %1, null
  br i1 %.not32, label %bsearch.exit.thread, label %bsearch.exit.thread.sink.split

18:                                               ; preds = %13
  %19 = add nuw i64 %.02642, 1
  %exitcond.not = icmp eq i64 %19, %10
  br i1 %exitcond.not, label %bsearch.exit.thread, label %13, !llvm.loop !20

20:                                               ; preds = %6
  %21 = icmp eq ptr %2, null
  br i1 %21, label %bsearch.exit.thread, label %22

22:                                               ; preds = %20
  %23 = getelementptr inbounds nuw i8, ptr %0, i64 16
  %24 = load i64, ptr %23, align 8, !tbaa !15
  %.not.i = icmp eq i64 %24, 0
  br i1 %.not.i, label %25, label %sk_sort.exit

25:                                               ; preds = %22
  %26 = getelementptr inbounds nuw i8, ptr %0, i64 8
  %27 = load ptr, ptr %26, align 8, !tbaa !6
  %28 = load i64, ptr %0, align 8, !tbaa !14
  tail call void @qsort(ptr noundef %27, i64 noundef %28, i64 noundef 8, ptr noundef nonnull %8) #17
  store i64 1, ptr %23, align 8, !tbaa !15
  %.pre = load ptr, ptr %7, align 8, !tbaa !12
  br label %sk_sort.exit

sk_sort.exit:                                     ; preds = %22, %25
  %29 = phi ptr [ %8, %22 ], [ %.pre, %25 ]
  %30 = getelementptr inbounds nuw i8, ptr %0, i64 8
  %31 = load ptr, ptr %30, align 8, !tbaa !6
  %32 = load i64, ptr %0, align 8, !tbaa !14
  %.not24.i = icmp eq i64 %32, 0
  br i1 %.not24.i, label %bsearch.exit.thread, label %.lr.ph.i

.lr.ph.i:                                         ; preds = %sk_sort.exit, %42
  %.01621.i = phi i64 [ %.1.i, %42 ], [ 0, %sk_sort.exit ]
  %.01720.i = phi i64 [ %.118.i, %42 ], [ %32, %sk_sort.exit ]
  %33 = add i64 %.01720.i, %.01621.i
  %34 = lshr i64 %33, 1
  %35 = shl i64 %34, 3
  %36 = getelementptr inbounds nuw i8, ptr %31, i64 %35
  %37 = call i32 %29(ptr noundef nonnull %4, ptr noundef nonnull %36) #17
  %38 = icmp slt i32 %37, 0
  br i1 %38, label %42, label %39

39:                                               ; preds = %.lr.ph.i
  %.not.i33 = icmp eq i32 %37, 0
  br i1 %.not.i33, label %bsearch.exit, label %40

40:                                               ; preds = %39
  %41 = add nuw i64 %34, 1
  br label %42

42:                                               ; preds = %40, %.lr.ph.i
  %.118.i = phi i64 [ %.01720.i, %40 ], [ %34, %.lr.ph.i ]
  %.1.i = phi i64 [ %41, %40 ], [ %.01621.i, %.lr.ph.i ]
  %43 = icmp ult i64 %.1.i, %.118.i
  br i1 %43, label %.lr.ph.i, label %bsearch.exit.thread, !llvm.loop !21

bsearch.exit:                                     ; preds = %39
  %44 = load ptr, ptr %30, align 8, !tbaa !6
  %.not38 = icmp eq ptr %36, %44
  br i1 %.not38, label %.critedge, label %.lr.ph.preheader

.lr.ph.preheader:                                 ; preds = %bsearch.exit
  %45 = ptrtoint ptr %36 to i64
  %46 = ptrtoint ptr %44 to i64
  %47 = sub i64 %45, %46
  %48 = ashr exact i64 %47, 3
  br label %.lr.ph

.lr.ph:                                           ; preds = %.lr.ph.preheader, %55
  %.139 = phi i64 [ %56, %55 ], [ %48, %.lr.ph.preheader ]
  %49 = load ptr, ptr %7, align 8, !tbaa !12
  %50 = load ptr, ptr %30, align 8, !tbaa !6
  %51 = getelementptr ptr, ptr %50, i64 %.139
  %52 = getelementptr i8, ptr %51, i64 -8
  %53 = call i32 %49(ptr noundef nonnull %4, ptr noundef %52) #17
  %54 = icmp eq i32 %53, 0
  br i1 %54, label %55, label %.critedge

55:                                               ; preds = %.lr.ph
  %56 = add i64 %.139, -1
  %.not = icmp eq i64 %56, 0
  br i1 %.not, label %.critedge, label %.lr.ph, !llvm.loop !22

.critedge:                                        ; preds = %.lr.ph, %55, %bsearch.exit
  %.1.lcssa = phi i64 [ 0, %bsearch.exit ], [ 0, %55 ], [ %.139, %.lr.ph ]
  %.not31 = icmp eq ptr %1, null
  br i1 %.not31, label %bsearch.exit.thread, label %bsearch.exit.thread.sink.split

bsearch.exit.thread.sink.split:                   ; preds = %.critedge, %17
  %.1.lcssa.sink = phi i64 [ %.02642, %17 ], [ %.1.lcssa, %.critedge ]
  store i64 %.1.lcssa.sink, ptr %1, align 8, !tbaa !23
  br label %bsearch.exit.thread

bsearch.exit.thread:                              ; preds = %42, %18, %bsearch.exit.thread.sink.split, %.preheader, %sk_sort.exit, %.critedge, %20, %17, %3
  %.0 = phi i32 [ 0, %3 ], [ 1, %17 ], [ 0, %20 ], [ 1, %.critedge ], [ 0, %sk_sort.exit ], [ 0, %.preheader ], [ 1, %bsearch.exit.thread.sink.split ], [ 0, %18 ], [ 0, %42 ]
  ret i32 %.0
}